target datalayout = "e-m:e-p270:32:32-p271:32:32-p272:64:64-i64:64-i128:128-f80:128-n8:16:32:64-S128"
target triple = "x86_64-unknown-linux-gnu"

@.str.250 = private unnamed_addr constant [10 x i8] c"riscv-cpu\00", align 1
@.str.337 = private unnamed_addr constant [2 x i8] c",\00", align 1
@.str.338 = private unnamed_addr constant [13 x i8] c"%s-riscv-cpu\00", align 1

; Function Attrs: nounwind sspstrong uwtable
define internal ptr @riscv_cpu_class_by_name(ptr noundef %cpu_model) #0 {
entry:
  %retval = alloca ptr, align 8
  %cpu_model.addr = alloca ptr, align 8
  %oc = alloca ptr, align 8
  %typename = alloca ptr, align 8
  %cpuname = alloca ptr, align 8
  store ptr %cpu_model, ptr %cpu_model.addr, align 8
  %0 = load ptr, ptr %cpu_model.addr, align 8
  %call = call ptr @g_strsplit(ptr noundef %0, ptr noundef @.str.337, i32 noundef 1)
  store ptr %call, ptr %cpuname, align 8
  %1 = load ptr, ptr %cpuname, align 8
  %arrayidx = getelementptr ptr, ptr %1, i64 0
  %2 = load ptr, ptr %arrayidx, align 8
  %call1 = call noalias ptr (ptr, ...) @g_strdup_printf(ptr noundef @.str.338, ptr noundef %2)
  store ptr %call1, ptr %typename, align 8
  %3 = load ptr, ptr %typename, align 8
  %call2 = call ptr @object_class_by_name(ptr noundef %3)
  store ptr %call2, ptr %oc, align 8
  %4 = load ptr, ptr %cpuname, align 8
  call void @g_strfreev(ptr noundef %4)
  %5 = load ptr, ptr %typename, align 8
  call void @g_free(ptr noundef %5)
  %6 = load ptr, ptr %oc, align 8
  %tobool = icmp ne ptr %6, null
  br i1 %tobool, label %lor.lhs.false, label %if.then

lor.lhs.false:                                    ; preds = %entry
  %7 = load ptr, ptr %oc, align 8
  %call3 = call ptr @object_class_dynamic_cast(ptr noundef %7, ptr noundef @.str.250)
  %tobool4 = icmp ne ptr %call3, null
  br i1 %tobool4, label %if.end, label %if.then

if.then:                                          ; preds = %lor.lhs.false, %entry
  store ptr null, ptr %retval, align 8
  br label %return

if.end:                                           ; preds = %lor.lhs.false
  %8 = load ptr, ptr %oc, align 8
  store ptr %8, ptr %retval, align 8
  br label %return

return:                                           ; preds = %if.end, %if.then
  %9 = load ptr, ptr %retval, align 8
  ret ptr %9
}