; Function Attrs: nounwind sspstrong uwtable
define internal ptr @riscv_cpu_class_by_name(ptr noundef %cpu_model) #3 {
entry:
  %call = tail call ptr @g_strsplit(ptr noundef %cpu_model, ptr noundef nonnull @.str.337, i32 noundef 1) #14
  %0 = load ptr, ptr %call, align 8
  %call1 = tail call noalias ptr (ptr, ...) @g_strdup_printf(ptr noundef nonnull @.str.338, ptr noundef %0) #14
  %call2 = tail call ptr @object_class_by_name(ptr noundef %call1) #14
  tail call void @g_strfreev(ptr noundef nonnull %call) #14
  tail call void @g_free(ptr noundef %call1) #14
  %tobool.not = icmp eq ptr %call2, null
  br i1 %tobool.not, label %return, label %lor.lhs.false

lor.lhs.false:                                    ; preds = %entry
  %call3 = tail call ptr @object_class_dynamic_cast(ptr noundef nonnull %call2, ptr noundef nonnull @.str.250) #14
  %tobool4.not = icmp eq ptr %call3, null
  %spec.select = select i1 %tobool4.not, ptr null, ptr %call2
  br label %return

return:                                           ; preds = %lor.lhs.false, %entry
  %retval.0 = phi ptr [ null, %entry ], [ %spec.select, %lor.lhs.false ]
  ret ptr %retval.0
}